target datalayout = "e-m:e-p270:32:32-p271:32:32-p272:64:64-i64:64-i128:128-f80:128-n8:16:32:64-S128"
target triple = "x86_64-pc-linux-gnu"

@.str.5 = private unnamed_addr constant [5 x i8] c"data\00", align 1
@sockopt_data.rbimpl_id = internal global i64 0, align 8

; Function Attrs: inlinehint nounwind sspstrong willreturn memory(read) uwtable
define internal i64 @rb_intern_const(ptr noundef nonnull %0) #5 {
  %2 = alloca ptr, align 8
  %3 = alloca i64, align 8
  store ptr %0, ptr %2, align 8, !tbaa !19
  call void @llvm.lifetime.start.p0(i64 8, ptr %3) #17
  %4 = load ptr, ptr %2, align 8, !tbaa !19
  %5 = call i64 @strlen(ptr noundef %4) #20
  store i64 %5, ptr %3, align 8, !tbaa !10
  %6 = load ptr, ptr %2, align 8, !tbaa !19
  %7 = load i64, ptr %3, align 8, !tbaa !10
  %8 = call i64 @rb_intern2(ptr noundef %6, i64 noundef %7)
  call void @llvm.lifetime.end.p0(i64 8, ptr %3) #17
  ret i64 %8
}

; Function Attrs: inlinehint nounwind sspstrong memory(argmem: readwrite, inaccessiblemem: readwrite) uwtable
define internal i64 @rbimpl_intern_const(ptr noundef nonnull %0, ptr noundef nonnull %1) #4 {
  %3 = alloca ptr, align 8
  %4 = alloca ptr, align 8
  store ptr %0, ptr %3, align 8, !tbaa !16
  store ptr %1, ptr %4, align 8, !tbaa !19
  br label %5

5:                                                ; preds = %10, %2
  %6 = load ptr, ptr %3, align 8, !tbaa !16
  %7 = load i64, ptr %6, align 8, !tbaa !10
  %8 = icmp ne i64 %7, 0
  %9 = xor i1 %8, true
  br i1 %9, label %10, label %14

10:                                               ; preds = %5
  %11 = load ptr, ptr %4, align 8, !tbaa !19
  %12 = call i64 @rb_intern_const(ptr noundef %11) #20
  %13 = load ptr, ptr %3, align 8, !tbaa !16
  store i64 %12, ptr %13, align 8, !tbaa !10
  br label %5, !llvm.loop !21

14:                                               ; preds = %5
  %15 = load ptr, ptr %3, align 8, !tbaa !16
  %16 = load i64, ptr %15, align 8, !tbaa !10
  ret i64 %16
}

; Function Attrs: nounwind sspstrong uwtable
define internal i64 @sockopt_data(i64 noundef %0) #0 {
  %2 = alloca i64, align 8
  %3 = alloca i64, align 8
  %4 = alloca i64, align 8
  store i64 %0, ptr %2, align 8, !tbaa !10
  call void @llvm.lifetime.start.p0(i64 8, ptr %3) #17
  %5 = load i64, ptr %2, align 8, !tbaa !10
  %6 = call i64 @rbimpl_intern_const(ptr noundef @sockopt_data.rbimpl_id, ptr noundef @.str.5) #18
  store i64 %6, ptr %4, align 8, !tbaa !10
  %7 = load i64, ptr %4, align 8, !tbaa !10
  %8 = call i64 @rb_attr_get(i64 noundef %5, i64 noundef %7)
  store i64 %8, ptr %3, align 8, !tbaa !10
  %9 = call i64 @rb_string_value(ptr noundef %3)
  %10 = load i64, ptr %3, align 8, !tbaa !10
  call void @llvm.lifetime.end.p0(i64 8, ptr %3) #17
  ret i64 %10
}