; Function Attrs: nounwind sspstrong uwtable
define internal i64 @sockopt_data(i64 noundef %0) #0 {
  %2 = alloca i64, align 8
  call void @llvm.lifetime.start.p0(i64 8, ptr nonnull %2) #6
  %.pr.i = load i64, ptr @sockopt_data.rbimpl_id, align 8, !tbaa !6
  %.not4.i = icmp eq i64 %.pr.i, 0
  br i1 %.not4.i, label %.lr.ph.i, label %rbimpl_intern_const.exit

.lr.ph.i:                                         ; preds = %1, %.lr.ph.i
  %3 = tail call i64 @rb_intern2(ptr noundef nonnull @.str.5, i64 noundef 4) #6
  store i64 %3, ptr @sockopt_data.rbimpl_id, align 8, !tbaa !6
  %.not.i = icmp eq i64 %3, 0
  br i1 %.not.i, label %.lr.ph.i, label %rbimpl_intern_const.exit, !llvm.loop !10

rbimpl_intern_const.exit:                         ; preds = %.lr.ph.i, %1
  %.lcssa.i = phi i64 [ %.pr.i, %1 ], [ %3, %.lr.ph.i ]
  %4 = tail call i64 @rb_attr_get(i64 noundef %0, i64 noundef %.lcssa.i) #6
  store i64 %4, ptr %2, align 8, !tbaa !6
  %5 = call i64 @rb_string_value(ptr noundef nonnull %2) #6
  %6 = load i64, ptr %2, align 8, !tbaa !6
  call void @llvm.lifetime.end.p0(i64 8, ptr nonnull %2) #6
  ret i64 %6
}